; Function Attrs: mustprogress nounwind uwtable
define hidden noundef ptr @_ZN17ExternalsRecorder2atEi(i32 noundef %0) local_unnamed_addr #0 align 2 {
  %2 = load ptr, ptr @ExternalsRecorder_lock, align 8
  %.not.i.i = icmp eq ptr %2, null
  br i1 %.not.i.i, label %_ZN11MutexLockerC2EP5MutexNS0_18SafepointCheckFlagE.exit, label %3

3:                                                ; preds = %1
  tail call void @_ZN5Mutex28lock_without_safepoint_checkEv(ptr noundef nonnull align 8 dereferenceable(104) %2) #11
  br label %_ZN11MutexLockerC2EP5MutexNS0_18SafepointCheckFlagE.exit

_ZN11MutexLockerC2EP5MutexNS0_18SafepointCheckFlagE.exit: ; preds = %1, %3
  %4 = icmp eq i32 %0, 0
  br i1 %4, label %_ZN13ValueRecorderIPhE2atEi.exit, label %5

5:                                                ; preds = %_ZN11MutexLockerC2EP5MutexNS0_18SafepointCheckFlagE.exit
  %6 = load ptr, ptr @_ZN17ExternalsRecorder9_recorderE, align 8
  %7 = getelementptr inbounds i8, ptr %6, i64 48
  %8 = load ptr, ptr %7, align 8
  %9 = getelementptr inbounds i8, ptr %8, i64 8
  %10 = load ptr, ptr %9, align 8
  %11 = sext i32 %0 to i64
  %12 = getelementptr ptr, ptr %10, i64 %11
  %13 = getelementptr i8, ptr %12, i64 -8
  %14 = load ptr, ptr %13, align 8
  br label %_ZN13ValueRecorderIPhE2atEi.exit

_ZN13ValueRecorderIPhE2atEi.exit:                 ; preds = %_ZN11MutexLockerC2EP5MutexNS0_18SafepointCheckFlagE.exit, %5
  %.0.i = phi ptr [ %14, %5 ], [ null, %_ZN11MutexLockerC2EP5MutexNS0_18SafepointCheckFlagE.exit ]
  br i1 %.not.i.i, label %_ZN11MutexLockerD2Ev.exit, label %15

15:                                               ; preds = %_ZN13ValueRecorderIPhE2atEi.exit
  tail call void @_ZN5Mutex6unlockEv(ptr noundef nonnull align 8 dereferenceable(104) %2) #11
  br label %_ZN11MutexLockerD2Ev.exit

_ZN11MutexLockerD2Ev.exit:                        ; preds = %_ZN13ValueRecorderIPhE2atEi.exit, %15
  ret ptr %.0.i
}